; ModuleID = '52/5118.cpp'
source_filename = "52/5118.cpp"
target datalayout = "e-m:e-p270:32:32-p271:32:32-p272:64:64-i64:64-f80:128-n8:16:32:64-S128"
target triple = "x86_64-pc-linux-gnu"

%"class.std::ios_base::Init" = type { i8 }
%"class.std::basic_istream" = type { i32 (...)**, i64, %"class.std::basic_ios" }
%"class.std::basic_ios" = type { %"class.std::ios_base", %"class.std::basic_ostream"*, i8, i8, %"class.std::basic_streambuf"*, %"class.std::ctype"*, %"class.std::num_put"*, %"class.std::num_get"* }
%"class.std::ios_base" = type { i32 (...)**, i64, i64, i32, i32, i32, %"struct.std::ios_base::_Callback_list"*, %"struct.std::ios_base::_Words", [8 x %"struct.std::ios_base::_Words"], i32, %"struct.std::ios_base::_Words"*, %"class.std::locale" }
%"struct.std::ios_base::_Callback_list" = type { %"struct.std::ios_base::_Callback_list"*, void (i32, %"class.std::ios_base"*, i32)*, i32, i32 }
%"struct.std::ios_base::_Words" = type { i8*, i64 }
%"class.std::locale" = type { %"class.std::locale::_Impl"* }
%"class.std::locale::_Impl" = type { i32, %"class.std::locale::facet"**, i64, %"class.std::locale::facet"**, i8** }
%"class.std::locale::facet" = type <{ i32 (...)**, i32, [4 x i8] }>
%"class.std::basic_ostream" = type { i32 (...)**, %"class.std::basic_ios" }
%"class.std::basic_streambuf" = type { i32 (...)**, i8*, i8*, i8*, i8*, i8*, i8*, %"class.std::locale" }
%"class.std::ctype" = type <{ %"class.std::locale::facet.base", [4 x i8], %struct.__locale_struct*, i8, [7 x i8], i32*, i32*, i16*, i8, [256 x i8], [256 x i8], i8, [6 x i8] }>
%"class.std::locale::facet.base" = type <{ i32 (...)**, i32 }>
%struct.__locale_struct = type { [13 x %struct.__locale_data*], i16*, i32*, i32*, [13 x i8*] }
%struct.__locale_data = type opaque
%"class.std::num_put" = type { %"class.std::locale::facet.base", [4 x i8] }
%"class.std::num_get" = type { %"class.std::locale::facet.base", [4 x i8] }

@_ZStL8__ioinit = internal global %"class.std::ios_base::Init" zeroinitializer, align 1
@__dso_handle = external hidden global i8
@_ZSt3cin = external dso_local global %"class.std::basic_istream", align 8
@_ZSt4cout = external dso_local global %"class.std::basic_ostream", align 8
@llvm.global_ctors = appending global [1 x { i32, void ()*, i8* }] [{ i32, void ()*, i8* } { i32 65535, void ()* @_GLOBAL__sub_I_5118.cpp, i8* null }]

; Function Attrs: noinline uwtable
define internal void @__cxx_global_var_init() #0 section ".text.startup" {
  call void @_ZNSt8ios_base4InitC1Ev(%"class.std::ios_base::Init"* @_ZStL8__ioinit)
  %1 = call i32 @__cxa_atexit(void (i8*)* bitcast (void (%"class.std::ios_base::Init"*)* @_ZNSt8ios_base4InitD1Ev to void (i8*)*), i8* getelementptr inbounds (%"class.std::ios_base::Init", %"class.std::ios_base::Init"* @_ZStL8__ioinit, i32 0, i32 0), i8* @__dso_handle) #3
  ret void
}

declare dso_local void @_ZNSt8ios_base4InitC1Ev(%"class.std::ios_base::Init"*) unnamed_addr #1

; Function Attrs: nounwind
declare dso_local void @_ZNSt8ios_base4InitD1Ev(%"class.std::ios_base::Init"*) unnamed_addr #2

; Function Attrs: nounwind
declare dso_local i32 @__cxa_atexit(void (i8*)*, i8*, i8*) #3

; Function Attrs: noinline norecurse uwtable
define dso_local i32 @main() #4 {
  %1 = alloca i32, align 4
  %2 = alloca i32, align 4
  %3 = alloca i32, align 4
  %4 = alloca [101 x i32], align 16
  %5 = alloca i32*, align 8
  %6 = alloca i32, align 4
  %7 = alloca i32, align 4
  %8 = alloca i32, align 4
  %9 = alloca i32, align 4
  store i32 0, i32* %1, align 4
  store i32 0, i32* %2, align 4
  store i32 0, i32* %3, align 4
  store i32* null, i32** %5, align 8
  store i32 0, i32* %6, align 4
  store i32 0, i32* %7, align 4
  %10 = call dereferenceable(280) %"class.std::basic_istream"* @_ZNSirsERi(%"class.std::basic_istream"* @_ZSt3cin, i32* dereferenceable(4) %2)
  %11 = call dereferenceable(280) %"class.std::basic_istream"* @_ZNSirsERi(%"class.std::basic_istream"* %10, i32* dereferenceable(4) %3)
  %12 = getelementptr inbounds [101 x i32], [101 x i32]* %4, i64 0, i64 1
  store i32* %12, i32** %5, align 8
  br label %13

13:                                               ; preds = %22, %0
  %14 = load i32*, i32** %5, align 8
  %15 = load i32, i32* %2, align 4
  %16 = sext i32 %15 to i64
  %17 = getelementptr inbounds [101 x i32], [101 x i32]* %4, i64 0, i64 %16
  %18 = icmp ule i32* %14, %17
  br i1 %18, label %19, label %25

19:                                               ; preds = %13
  %20 = load i32*, i32** %5, align 8
  %21 = call dereferenceable(280) %"class.std::basic_istream"* @_ZNSirsERi(%"class.std::basic_istream"* @_ZSt3cin, i32* dereferenceable(4) %20)
  br label %22

22:                                               ; preds = %19
  %23 = load i32*, i32** %5, align 8
  %24 = getelementptr inbounds i32, i32* %23, i32 1
  store i32* %24, i32** %5, align 8
  br label %13

25:                                               ; preds = %13
  store i32 1, i32* %8, align 4
  br label %26

26:                                               ; preds = %74, %25
  %27 = load i32, i32* %8, align 4
  %28 = load i32, i32* %3, align 4
  %29 = icmp sle i32 %27, %28
  br i1 %29, label %30, label %77

30:                                               ; preds = %26
  %31 = load i32, i32* %8, align 4
  %32 = sext i32 %31 to i64
  %33 = getelementptr inbounds [101 x i32], [101 x i32]* %4, i64 0, i64 %32
  %34 = load i32, i32* %33, align 4
  store i32 %34, i32* %7, align 4
  %35 = load i32, i32* %2, align 4
  %36 = load i32, i32* %8, align 4
  %37 = add nsw i32 %35, %36
  %38 = load i32, i32* %3, align 4
  %39 = sub nsw i32 %37, %38
  %40 = sext i32 %39 to i64
  %41 = getelementptr inbounds [101 x i32], [101 x i32]* %4, i64 0, i64 %40
  %42 = load i32, i32* %41, align 4
  %43 = load i32, i32* %8, align 4
  %44 = sext i32 %43 to i64
  %45 = getelementptr inbounds [101 x i32], [101 x i32]* %4, i64 0, i64 %44
  store i32 %42, i32* %45, align 4
  %46 = load i32, i32* %2, align 4
  %47 = load i32, i32* %8, align 4
  %48 = add nsw i32 %46, %47
  %49 = load i32, i32* %3, align 4
  %50 = sub nsw i32 %48, %49
  store i32 %50, i32* %9, align 4
  br label %51

51:                                               ; preds = %65, %30
  %52 = load i32, i32* %9, align 4
  %53 = load i32, i32* %8, align 4
  %54 = add nsw i32 %53, 2
  %55 = icmp sge i32 %52, %54
  br i1 %55, label %56, label %68

56:                                               ; preds = %51
  %57 = load i32, i32* %9, align 4
  %58 = sub nsw i32 %57, 1
  %59 = sext i32 %58 to i64
  %60 = getelementptr inbounds [101 x i32], [101 x i32]* %4, i64 0, i64 %59
  %61 = load i32, i32* %60, align 4
  %62 = load i32, i32* %9, align 4
  %63 = sext i32 %62 to i64
  %64 = getelementptr inbounds [101 x i32], [101 x i32]* %4, i64 0, i64 %63
  store i32 %61, i32* %64, align 4
  br label %65

65:                                               ; preds = %56
  %66 = load i32, i32* %9, align 4
  %67 = add nsw i32 %66, -1
  store i32 %67, i32* %9, align 4
  br label %51

68:                                               ; preds = %51
  %69 = load i32, i32* %7, align 4
  %70 = load i32, i32* %8, align 4
  %71 = add nsw i32 %70, 1
  %72 = sext i32 %71 to i64
  %73 = getelementptr inbounds [101 x i32], [101 x i32]* %4, i64 0, i64 %72
  store i32 %69, i32* %73, align 4
  br label %74

74:                                               ; preds = %68
  %75 = load i32, i32* %8, align 4
  %76 = add nsw i32 %75, 1
  store i32 %76, i32* %8, align 4
  br label %26

77:                                               ; preds = %26
  %78 = getelementptr inbounds [101 x i32], [101 x i32]* %4, i64 0, i64 1
  %79 = load i32, i32* %78, align 4
  %80 = call dereferenceable(272) %"class.std::basic_ostream"* @_ZNSolsEi(%"class.std::basic_ostream"* @_ZSt4cout, i32 %79)
  %81 = getelementptr inbounds [101 x i32], [101 x i32]* %4, i64 0, i64 2
  store i32* %81, i32** %5, align 8
  br label %82

82:                                               ; preds = %93, %77
  %83 = load i32*, i32** %5, align 8
  %84 = load i32, i32* %2, align 4
  %85 = sext i32 %84 to i64
  %86 = getelementptr inbounds [101 x i32], [101 x i32]* %4, i64 0, i64 %85
  %87 = icmp ule i32* %83, %86
  br i1 %87, label %88, label %96

88:                                               ; preds = %82
  %89 = call dereferenceable(272) %"class.std::basic_ostream"* @_ZStlsISt11char_traitsIcEERSt13basic_ostreamIcT_ES5_c(%"class.std::basic_ostream"* dereferenceable(272) @_ZSt4cout, i8 signext 32)
  %90 = load i32*, i32** %5, align 8
  %91 = load i32, i32* %90, align 4
  %92 = call dereferenceable(272) %"class.std::basic_ostream"* @_ZNSolsEi(%"class.std::basic_ostream"* %89, i32 %91)
  br label %93

93:                                               ; preds = %88
  %94 = load i32*, i32** %5, align 8
  %95 = getelementptr inbounds i32, i32* %94, i32 1
  store i32* %95, i32** %5, align 8
  br label %82

96:                                               ; preds = %82
  %97 = call dereferenceable(272) %"class.std::basic_ostream"* @_ZNSolsEPFRSoS_E(%"class.std::basic_ostream"* @_ZSt4cout, %"class.std::basic_ostream"* (%"class.std::basic_ostream"*)* @_ZSt4endlIcSt11char_traitsIcEERSt13basic_ostreamIT_T0_ES6_)
  ret i32 0
}

declare dso_local dereferenceable(280) %"class.std::basic_istream"* @_ZNSirsERi(%"class.std::basic_istream"*, i32* dereferenceable(4)) #1

declare dso_local dereferenceable(272) %"class.std::basic_ostream"* @_ZNSolsEi(%"class.std::basic_ostream"*, i32) #1

declare dso_local dereferenceable(272) %"class.std::basic_ostream"* @_ZStlsISt11char_traitsIcEERSt13basic_ostreamIcT_ES5_c(%"class.std::basic_ostream"* dereferenceable(272), i8 signext) #1

declare dso_local dereferenceable(272) %"class.std::basic_ostream"* @_ZNSolsEPFRSoS_E(%"class.std::basic_ostream"*, %"class.std::basic_ostream"* (%"class.std::basic_ostream"*)*) #1

declare dso_local dereferenceable(272) %"class.std::basic_ostream"* @_ZSt4endlIcSt11char_traitsIcEERSt13basic_ostreamIT_T0_ES6_(%"class.std::basic_ostream"* dereferenceable(272)) #1

; Function Attrs: noinline uwtable
define internal void @_GLOBAL__sub_I_5118.cpp() #0 section ".text.startup" {
  call void @__cxx_global_var_init()
  ret void
}


!llvm.module.flags = !{!0}
!llvm.ident = !{!1}

!0 = !{i32 1, !"wchar_size", i32 4}
!1 = !{!"clang version 10.0.0-4ubuntu1 "}
